; Function Attrs: mustprogress uwtable
define void @_ZNK19OpenColorIO_v2_4dev13FileTransform18createEditableCopyEv(ptr noalias nocapture writeonly sret(%"class.std::shared_ptr.0") align 8 %agg.result, ptr nocapture noundef nonnull readonly align 8 dereferenceable(16) %this) unnamed_addr #3 align 2 personality ptr @__gxx_personality_v0 {
entry:
  %transform = alloca %"class.std::shared_ptr", align 8
  call void @_ZN19OpenColorIO_v2_4dev13FileTransform6CreateEv(ptr nonnull sret(%"class.std::shared_ptr") align 8 %transform)
  %m_impl = getelementptr inbounds i8, ptr %this, i64 8
  %0 = load ptr, ptr %m_impl, align 8
  %1 = load ptr, ptr %transform, align 8
  %m_impl2 = getelementptr inbounds i8, ptr %1, i64 8
  %2 = load ptr, ptr %m_impl2, align 8
  %3 = load i64, ptr %0, align 8
  store i64 %3, ptr %2, align 8
  %m_src.i = getelementptr inbounds i8, ptr %2, i64 8
  %m_src3.i = getelementptr inbounds i8, ptr %0, i64 8
  %call.i1 = invoke noundef nonnull align 8 dereferenceable(32) ptr @_ZNSt7__cxx1112basic_stringIcSt11char_traitsIcESaIcEEaSERKS4_(ptr noundef nonnull align 8 dereferenceable(32) %m_src.i, ptr noundef nonnull align 8 dereferenceable(32) %m_src3.i)
          to label %call.i.noexc unwind label %lpad

call.i.noexc:                                     ; preds = %entry
  %m_cccid.i = getelementptr inbounds i8, ptr %2, i64 40
  %m_cccid4.i = getelementptr inbounds i8, ptr %0, i64 40
  %call5.i2 = invoke noundef nonnull align 8 dereferenceable(32) ptr @_ZNSt7__cxx1112basic_stringIcSt11char_traitsIcESaIcEEaSERKS4_(ptr noundef nonnull align 8 dereferenceable(32) %m_cccid.i, ptr noundef nonnull align 8 dereferenceable(32) %m_cccid4.i)
          to label %_ZNSt10shared_ptrIN19OpenColorIO_v2_4dev13FileTransformEED2Ev.exit unwind label %lpad

_ZNSt10shared_ptrIN19OpenColorIO_v2_4dev13FileTransformEED2Ev.exit: ; preds = %call.i.noexc
  %m_cdlStyle.i = getelementptr inbounds i8, ptr %0, i64 72
  %4 = load i32, ptr %m_cdlStyle.i, align 8
  %m_cdlStyle6.i = getelementptr inbounds i8, ptr %2, i64 72
  store i32 %4, ptr %m_cdlStyle6.i, align 8
  store ptr %1, ptr %agg.result, align 8
  %_M_refcount.i.i = getelementptr inbounds i8, ptr %agg.result, i64 8
  %_M_refcount4.i.i = getelementptr inbounds i8, ptr %transform, i64 8
  %5 = load ptr, ptr %_M_refcount4.i.i, align 8
  store ptr %5, ptr %_M_refcount.i.i, align 8
  ret void

lpad:                                             ; preds = %call.i.noexc, %entry
  %6 = landingpad { ptr, i32 }
          cleanup
  call void @_ZNSt10shared_ptrIN19OpenColorIO_v2_4dev13FileTransformEED2Ev(ptr noundef nonnull align 8 dereferenceable(16) %transform) #28
  resume { ptr, i32 } %6
}